; Function Attrs: nounwind sspstrong uwtable
define dso_local noundef i64 @rb_struct_initialize(i64 noundef %0, i64 noundef %1) local_unnamed_addr #0 {
  %3 = alloca i64, align 8
  %4 = alloca ptr, align 8
  store i64 %1, ptr %3, align 8, !tbaa !7
  %5 = inttoptr i64 %1 to ptr
  %6 = load i64, ptr %5, align 8, !tbaa !11
  %7 = and i64 %6, 8192
  %.not.i.i = icmp eq i64 %7, 0
  br i1 %.not.i.i, label %rb_array_len.exit.i, label %rb_array_len.exit.i.thread

rb_array_len.exit.i:                              ; preds = %2
  %8 = getelementptr inbounds nuw i8, ptr %5, i64 16
  %9 = load i64, ptr %8, align 8, !tbaa !13
  %10 = add i64 %9, 2147483648
  %.not.i1.i = icmp ult i64 %10, 4294967296
  br i1 %.not.i1.i, label %16, label %15

rb_array_len.exit.i.thread:                       ; preds = %2
  %11 = trunc i64 %6 to i32
  %12 = lshr i32 %11, 15
  %13 = and i32 %12, 127
  %14 = getelementptr inbounds nuw i8, ptr %5, i64 16
  br label %rb_array_const_ptr.exit

15:                                               ; preds = %rb_array_len.exit.i
  tail call void @rb_out_of_int(i64 noundef %9) #26
  unreachable

16:                                               ; preds = %rb_array_len.exit.i
  %17 = trunc i64 %9 to i32
  %18 = getelementptr inbounds nuw i8, ptr %5, i64 32
  %19 = load ptr, ptr %18, align 8, !tbaa !13
  br label %rb_array_const_ptr.exit

rb_array_const_ptr.exit:                          ; preds = %rb_array_len.exit.i.thread, %16
  %20 = phi i32 [ %13, %rb_array_len.exit.i.thread ], [ %17, %16 ]
  %.0.i = phi ptr [ %14, %rb_array_len.exit.i.thread ], [ %19, %16 ]
  %21 = tail call i64 @rb_struct_initialize_m(i32 noundef %20, ptr noundef %.0.i, i64 noundef %0)
  %22 = load i64, ptr @rb_cData, align 8, !tbaa !7
  %23 = tail call i64 @rb_obj_is_kind_of(i64 noundef %0, i64 noundef %22) #19
  %.not = icmp eq i64 %23, 0
  br i1 %.not, label %25, label %24

24:                                               ; preds = %rb_array_const_ptr.exit
  tail call void @rb_obj_freeze_inline(i64 noundef %0) #19
  br label %25

25:                                               ; preds = %24, %rb_array_const_ptr.exit
  call void @llvm.lifetime.start.p0(i64 8, ptr nonnull %4) #19
  store ptr %3, ptr %4, align 8, !tbaa !28
  call void asm sideeffect "", "*m,~{dirflag},~{fpsr},~{flags}"(ptr nonnull elementtype(ptr) %4) #19, !srcloc !30
  %26 = load ptr, ptr %4, align 8, !tbaa !28
  call void @llvm.lifetime.end.p0(i64 8, ptr nonnull %4) #19
  %27 = load volatile i64, ptr %26, align 8, !tbaa !7
  ret i64 4
}